target datalayout = "e-m:e-p270:32:32-p271:32:32-p272:64:64-i64:64-i128:128-f80:128-n8:16:32:64-S128"
target triple = "x86_64-pc-linux-gnu"

%struct.psa_crypto_local_output_s = type { ptr, ptr, i64 }

; Function Attrs: nounwind uwtable
define hidden i32 @psa_crypto_local_output_alloc(ptr noundef %0, i64 noundef %1, ptr noundef %2) #0 {
  %4 = alloca i32, align 4
  %5 = alloca ptr, align 8
  %6 = alloca i64, align 8
  %7 = alloca ptr, align 8
  %8 = alloca %struct.psa_crypto_local_output_s, align 8
  store ptr %0, ptr %5, align 8, !tbaa !29
  store i64 %1, ptr %6, align 8, !tbaa !20
  store ptr %2, ptr %7, align 8, !tbaa !46
  %9 = load ptr, ptr %7, align 8, !tbaa !46
  call void @llvm.memset.p0.i64(ptr align 8 %8, i8 0, i64 24, i1 false)
  call void @llvm.memcpy.p0.p0.i64(ptr align 8 %9, ptr align 8 %8, i64 24, i1 false), !tbaa.struct !48
  %10 = load i64, ptr %6, align 8, !tbaa !20
  %11 = icmp eq i64 %10, 0
  br i1 %11, label %12, label %13

12:                                               ; preds = %3
  store i32 0, ptr %4, align 4
  br label %30

13:                                               ; preds = %3
  %14 = load i64, ptr %6, align 8, !tbaa !20
  %15 = call noalias ptr @calloc(i64 noundef %14, i64 noundef 1) #9
  %16 = load ptr, ptr %7, align 8, !tbaa !46
  %17 = getelementptr inbounds nuw %struct.psa_crypto_local_output_s, ptr %16, i32 0, i32 1
  store ptr %15, ptr %17, align 8, !tbaa !44
  %18 = load ptr, ptr %7, align 8, !tbaa !46
  %19 = getelementptr inbounds nuw %struct.psa_crypto_local_output_s, ptr %18, i32 0, i32 1
  %20 = load ptr, ptr %19, align 8, !tbaa !44
  %21 = icmp eq ptr %20, null
  br i1 %21, label %22, label %23

22:                                               ; preds = %13
  store i32 -141, ptr %4, align 4
  br label %30

23:                                               ; preds = %13
  %24 = load i64, ptr %6, align 8, !tbaa !20
  %25 = load ptr, ptr %7, align 8, !tbaa !46
  %26 = getelementptr inbounds nuw %struct.psa_crypto_local_output_s, ptr %25, i32 0, i32 2
  store i64 %24, ptr %26, align 8, !tbaa !49
  %27 = load ptr, ptr %5, align 8, !tbaa !29
  %28 = load ptr, ptr %7, align 8, !tbaa !46
  %29 = getelementptr inbounds nuw %struct.psa_crypto_local_output_s, ptr %28, i32 0, i32 0
  store ptr %27, ptr %29, align 8, !tbaa !50
  store i32 0, ptr %4, align 4
  br label %30

30:                                               ; preds = %23, %22, %12
  %31 = load i32, ptr %4, align 4
  ret i32 %31
}