; Function Attrs: mustprogress nofree nounwind willreturn memory(argmem: write, inaccessiblemem: readwrite) uwtable
define hidden range(i32 -141, 1) i32 @psa_crypto_local_output_alloc(ptr noundef %0, i64 noundef %1, ptr noundef writeonly captures(none) initializes((0, 24)) %2) local_unnamed_addr #11 {
  tail call void @llvm.memset.p0.i64(ptr noundef nonnull align 8 dereferenceable(24) %2, i8 0, i64 24, i1 false)
  %4 = icmp eq i64 %1, 0
  br i1 %4, label %11, label %5

5:                                                ; preds = %3
  %6 = tail call noalias ptr @calloc(i64 noundef %1, i64 noundef 1) #21
  %7 = getelementptr inbounds nuw i8, ptr %2, i64 8
  store ptr %6, ptr %7, align 8, !tbaa !40
  %8 = icmp eq ptr %6, null
  br i1 %8, label %11, label %9

9:                                                ; preds = %5
  %10 = getelementptr inbounds nuw i8, ptr %2, i64 16
  store i64 %1, ptr %10, align 8, !tbaa !42
  store ptr %0, ptr %2, align 8, !tbaa !43
  br label %11

11:                                               ; preds = %5, %3, %9
  %.0 = phi i32 [ 0, %9 ], [ 0, %3 ], [ -141, %5 ]
  ret i32 %.0
}